target datalayout = "e-m:e-p270:32:32-p271:32:32-p272:64:64-i64:64-i128:128-f80:128-n8:16:32:64-S128"
target triple = "x86_64-pc-linux-gnu"

%struct.AVChannelLayout = type { i32, i32, %union.anon.1, ptr }
%union.anon.1 = type { i64 }
%struct.AVFilterContext = type { ptr, ptr, ptr, ptr, ptr, i32, ptr, ptr, i32, ptr, ptr, i32, i32, ptr, ptr, ptr, ptr, i32, ptr, i32, i32 }
%struct.SineContext = type { ptr, double, double, ptr, ptr, i32, i64, ptr, i64, %struct.SamplingContext, %struct.SamplingContext, i32, i32, i32 }
%struct.SamplingContext = type { i32, i32, i32, i32, i32 }
%struct.AVFilterLink = type { ptr, ptr, ptr, ptr, i32, i32, i32, i32, %struct.AVRational, i32, i32, i32, %struct.AVChannelLayout, %struct.AVRational, ptr, i32, %struct.AVFilterFormatsConfig, %struct.AVFilterFormatsConfig }
%struct.AVFilterFormatsConfig = type { ptr, ptr, ptr, ptr, ptr }
%struct.AVRational = type { i32, i32 }

; Function Attrs: cold nounwind optsize uwtable
define internal i32 @config_props(ptr noundef %0) #0 {
  %2 = alloca ptr, align 8
  %3 = alloca ptr, align 8
  store ptr %0, ptr %2, align 8, !tbaa !42
  call void @llvm.lifetime.start.p0(i64 8, ptr %3) #9
  %4 = load ptr, ptr %2, align 8, !tbaa !42
  %5 = getelementptr inbounds nuw %struct.AVFilterLink, ptr %4, i32 0, i32 0
  %6 = load ptr, ptr %5, align 8, !tbaa !74
  %7 = getelementptr inbounds nuw %struct.AVFilterContext, ptr %6, i32 0, i32 9
  %8 = load ptr, ptr %7, align 8, !tbaa !9
  store ptr %8, ptr %3, align 8, !tbaa !22
  %9 = load ptr, ptr %3, align 8, !tbaa !22
  %10 = getelementptr inbounds nuw %struct.SineContext, ptr %9, i32 0, i32 6
  %11 = load i64, ptr %10, align 8, !tbaa !57
  %12 = load ptr, ptr %3, align 8, !tbaa !22
  %13 = getelementptr inbounds nuw %struct.SineContext, ptr %12, i32 0, i32 5
  %14 = load i32, ptr %13, align 8, !tbaa !32
  %15 = sext i32 %14 to i64
  %16 = call i64 @av_rescale(i64 noundef %11, i64 noundef %15, i64 noundef 1000000) #10
  %17 = load ptr, ptr %3, align 8, !tbaa !22
  %18 = getelementptr inbounds nuw %struct.SineContext, ptr %17, i32 0, i32 6
  store i64 %16, ptr %18, align 8, !tbaa !57
  call void @llvm.lifetime.end.p0(i64 8, ptr %3) #9
  ret i32 0
}