; Function Attrs: cold mustprogress nofree nosync nounwind optsize willreturn memory(readwrite, inaccessiblemem: none) uwtable
define internal noundef i32 @config_props(ptr noundef readonly captures(none) %0) #2 {
  %2 = load ptr, ptr %0, align 8, !tbaa !73
  %3 = getelementptr inbounds nuw i8, ptr %2, i64 72
  %4 = load ptr, ptr %3, align 8, !tbaa !4
  %5 = getelementptr inbounds nuw i8, ptr %4, i64 48
  %6 = load i64, ptr %5, align 8, !tbaa !58
  %7 = getelementptr inbounds nuw i8, ptr %4, i64 40
  %8 = load i32, ptr %7, align 8, !tbaa !28
  %9 = sext i32 %8 to i64
  %10 = tail call i64 @av_rescale(i64 noundef %6, i64 noundef %9, i64 noundef 1000000) #11
  store i64 %10, ptr %5, align 8, !tbaa !58
  ret i32 0
}